#include <math.h>
#include <stdio.h>
#include <stdlib.h>
#include <string.h>


int order(char *x,int l)
{
	if(l==1)	return 0;
	int i,y;
	for(i=0;i<l-1;i++)
	{
		if(*(x+i)>*(x+i+1))
		{
			y=*(x+i);
			*(x+i)=*(x+i+1);
			*(x+i+1)=y;
		}
	}
	return order(x,l-1);
}

int main()
{
	char x[300]={0},y[300]={0},c;
	char *px,*py;
	int i,lx,ly;
	px=x;py=y;
	for(i=0;(c=getchar())!=' ';i++)
	{
		x[i]=c;
	}
	lx=i;
	for(i=0;(c=getchar())!='\n';i++)
	{
		y[i]=c;
	}
	ly=i;
	order(px,lx);
	order(py,ly);
	for(i=0;i<lx||i<ly;i++)
	{
		if(x[i]!=y[i])
		{
			printf("NO\n");
			return 0;
		}
	}
	printf("YES\n");
	return 0;
}
