; ModuleID = '36/1599.c'
source_filename = "36/1599.c"
target datalayout = "e-m:e-p270:32:32-p271:32:32-p272:64:64-i64:64-f80:128-n8:16:32:64-S128"
target triple = "x86_64-pc-linux-gnu"

@.str = private unnamed_addr constant [4 x i8] c"NO\0A\00", align 1
@.str.1 = private unnamed_addr constant [5 x i8] c"YES\0A\00", align 1

; Function Attrs: noinline nounwind uwtable
define dso_local i32 @order(i8* %0, i32 %1) #0 {
  %3 = alloca i32, align 4
  %4 = alloca i8*, align 8
  %5 = alloca i32, align 4
  %6 = alloca i32, align 4
  %7 = alloca i32, align 4
  store i8* %0, i8** %4, align 8
  store i32 %1, i32* %5, align 4
  %8 = load i32, i32* %5, align 4
  %9 = icmp eq i32 %8, 1
  br i1 %9, label %10, label %11

10:                                               ; preds = %2
  store i32 0, i32* %3, align 4
  br label %65

11:                                               ; preds = %2
  store i32 0, i32* %6, align 4
  br label %12

12:                                               ; preds = %57, %11
  %13 = load i32, i32* %6, align 4
  %14 = load i32, i32* %5, align 4
  %15 = sub nsw i32 %14, 1
  %16 = icmp slt i32 %13, %15
  br i1 %16, label %17, label %60

17:                                               ; preds = %12
  %18 = load i8*, i8** %4, align 8
  %19 = load i32, i32* %6, align 4
  %20 = sext i32 %19 to i64
  %21 = getelementptr inbounds i8, i8* %18, i64 %20
  %22 = load i8, i8* %21, align 1
  %23 = sext i8 %22 to i32
  %24 = load i8*, i8** %4, align 8
  %25 = load i32, i32* %6, align 4
  %26 = sext i32 %25 to i64
  %27 = getelementptr inbounds i8, i8* %24, i64 %26
  %28 = getelementptr inbounds i8, i8* %27, i64 1
  %29 = load i8, i8* %28, align 1
  %30 = sext i8 %29 to i32
  %31 = icmp sgt i32 %23, %30
  br i1 %31, label %32, label %56

32:                                               ; preds = %17
  %33 = load i8*, i8** %4, align 8
  %34 = load i32, i32* %6, align 4
  %35 = sext i32 %34 to i64
  %36 = getelementptr inbounds i8, i8* %33, i64 %35
  %37 = load i8, i8* %36, align 1
  %38 = sext i8 %37 to i32
  store i32 %38, i32* %7, align 4
  %39 = load i8*, i8** %4, align 8
  %40 = load i32, i32* %6, align 4
  %41 = sext i32 %40 to i64
  %42 = getelementptr inbounds i8, i8* %39, i64 %41
  %43 = getelementptr inbounds i8, i8* %42, i64 1
  %44 = load i8, i8* %43, align 1
  %45 = load i8*, i8** %4, align 8
  %46 = load i32, i32* %6, align 4
  %47 = sext i32 %46 to i64
  %48 = getelementptr inbounds i8, i8* %45, i64 %47
  store i8 %44, i8* %48, align 1
  %49 = load i32, i32* %7, align 4
  %50 = trunc i32 %49 to i8
  %51 = load i8*, i8** %4, align 8
  %52 = load i32, i32* %6, align 4
  %53 = sext i32 %52 to i64
  %54 = getelementptr inbounds i8, i8* %51, i64 %53
  %55 = getelementptr inbounds i8, i8* %54, i64 1
  store i8 %50, i8* %55, align 1
  br label %56

56:                                               ; preds = %32, %17
  br label %57

57:                                               ; preds = %56
  %58 = load i32, i32* %6, align 4
  %59 = add nsw i32 %58, 1
  store i32 %59, i32* %6, align 4
  br label %12

60:                                               ; preds = %12
  %61 = load i8*, i8** %4, align 8
  %62 = load i32, i32* %5, align 4
  %63 = sub nsw i32 %62, 1
  %64 = call i32 @order(i8* %61, i32 %63)
  store i32 %64, i32* %3, align 4
  br label %65

65:                                               ; preds = %60, %10
  %66 = load i32, i32* %3, align 4
  ret i32 %66
}

; Function Attrs: noinline nounwind uwtable
define dso_local i32 @main() #0 {
  %1 = alloca i32, align 4
  %2 = alloca [300 x i8], align 16
  %3 = alloca [300 x i8], align 16
  %4 = alloca i8, align 1
  %5 = alloca i8*, align 8
  %6 = alloca i8*, align 8
  %7 = alloca i32, align 4
  %8 = alloca i32, align 4
  %9 = alloca i32, align 4
  store i32 0, i32* %1, align 4
  %10 = bitcast [300 x i8]* %2 to i8*
  call void @llvm.memset.p0i8.i64(i8* align 16 %10, i8 0, i64 300, i1 false)
  %11 = bitcast [300 x i8]* %3 to i8*
  call void @llvm.memset.p0i8.i64(i8* align 16 %11, i8 0, i64 300, i1 false)
  %12 = getelementptr inbounds [300 x i8], [300 x i8]* %2, i64 0, i64 0
  store i8* %12, i8** %5, align 8
  %13 = getelementptr inbounds [300 x i8], [300 x i8]* %3, i64 0, i64 0
  store i8* %13, i8** %6, align 8
  store i32 0, i32* %7, align 4
  br label %14

14:                                               ; preds = %24, %0
  %15 = call i32 @getchar()
  %16 = trunc i32 %15 to i8
  store i8 %16, i8* %4, align 1
  %17 = sext i8 %16 to i32
  %18 = icmp ne i32 %17, 32
  br i1 %18, label %19, label %27

19:                                               ; preds = %14
  %20 = load i8, i8* %4, align 1
  %21 = load i32, i32* %7, align 4
  %22 = sext i32 %21 to i64
  %23 = getelementptr inbounds [300 x i8], [300 x i8]* %2, i64 0, i64 %22
  store i8 %20, i8* %23, align 1
  br label %24

24:                                               ; preds = %19
  %25 = load i32, i32* %7, align 4
  %26 = add nsw i32 %25, 1
  store i32 %26, i32* %7, align 4
  br label %14

27:                                               ; preds = %14
  %28 = load i32, i32* %7, align 4
  store i32 %28, i32* %8, align 4
  store i32 0, i32* %7, align 4
  br label %29

29:                                               ; preds = %39, %27
  %30 = call i32 @getchar()
  %31 = trunc i32 %30 to i8
  store i8 %31, i8* %4, align 1
  %32 = sext i8 %31 to i32
  %33 = icmp ne i32 %32, 10
  br i1 %33, label %34, label %42

34:                                               ; preds = %29
  %35 = load i8, i8* %4, align 1
  %36 = load i32, i32* %7, align 4
  %37 = sext i32 %36 to i64
  %38 = getelementptr inbounds [300 x i8], [300 x i8]* %3, i64 0, i64 %37
  store i8 %35, i8* %38, align 1
  br label %39

39:                                               ; preds = %34
  %40 = load i32, i32* %7, align 4
  %41 = add nsw i32 %40, 1
  store i32 %41, i32* %7, align 4
  br label %29

42:                                               ; preds = %29
  %43 = load i32, i32* %7, align 4
  store i32 %43, i32* %9, align 4
  %44 = load i8*, i8** %5, align 8
  %45 = load i32, i32* %8, align 4
  %46 = call i32 @order(i8* %44, i32 %45)
  %47 = load i8*, i8** %6, align 8
  %48 = load i32, i32* %9, align 4
  %49 = call i32 @order(i8* %47, i32 %48)
  store i32 0, i32* %7, align 4
  br label %50

50:                                               ; preds = %75, %42
  %51 = load i32, i32* %7, align 4
  %52 = load i32, i32* %8, align 4
  %53 = icmp slt i32 %51, %52
  br i1 %53, label %58, label %54

54:                                               ; preds = %50
  %55 = load i32, i32* %7, align 4
  %56 = load i32, i32* %9, align 4
  %57 = icmp slt i32 %55, %56
  br label %58

58:                                               ; preds = %54, %50
  %59 = phi i1 [ true, %50 ], [ %57, %54 ]
  br i1 %59, label %60, label %78

60:                                               ; preds = %58
  %61 = load i32, i32* %7, align 4
  %62 = sext i32 %61 to i64
  %63 = getelementptr inbounds [300 x i8], [300 x i8]* %2, i64 0, i64 %62
  %64 = load i8, i8* %63, align 1
  %65 = sext i8 %64 to i32
  %66 = load i32, i32* %7, align 4
  %67 = sext i32 %66 to i64
  %68 = getelementptr inbounds [300 x i8], [300 x i8]* %3, i64 0, i64 %67
  %69 = load i8, i8* %68, align 1
  %70 = sext i8 %69 to i32
  %71 = icmp ne i32 %65, %70
  br i1 %71, label %72, label %74

72:                                               ; preds = %60
  %73 = call i32 (i8*, ...) @printf(i8* getelementptr inbounds ([4 x i8], [4 x i8]* @.str, i64 0, i64 0))
  store i32 0, i32* %1, align 4
  br label %80

74:                                               ; preds = %60
  br label %75

75:                                               ; preds = %74
  %76 = load i32, i32* %7, align 4
  %77 = add nsw i32 %76, 1
  store i32 %77, i32* %7, align 4
  br label %50

78:                                               ; preds = %58
  %79 = call i32 (i8*, ...) @printf(i8* getelementptr inbounds ([5 x i8], [5 x i8]* @.str.1, i64 0, i64 0))
  store i32 0, i32* %1, align 4
  br label %80

80:                                               ; preds = %78, %72
  %81 = load i32, i32* %1, align 4
  ret i32 %81
}

; Function Attrs: argmemonly nounwind willreturn
declare void @llvm.memset.p0i8.i64(i8* nocapture writeonly, i8, i64, i1 immarg) #1

declare dso_local i32 @getchar() #2

declare dso_local i32 @printf(i8*, ...) #2


!llvm.module.flags = !{!0}
!llvm.ident = !{!1}

!0 = !{i32 1, !"wchar_size", i32 4}
!1 = !{!"clang version 10.0.0-4ubuntu1 "}
